target datalayout = "e-m:e-p270:32:32-p271:32:32-p272:64:64-i64:64-i128:128-f80:128-n8:16:32:64-S128"
target triple = "x86_64-pc-linux-gnu"

@.str.17 = private unnamed_addr constant [5 x i8] c"next\00", align 1
@.str.18 = private unnamed_addr constant [24 x i8] c"Command received: next\0A\00", align 1

; Function Attrs: nounwind uwtable
define internal i32 @process_command(ptr noundef %0, ptr noundef %1, ptr noundef %2, ptr noundef %3, i32 noundef %4, i32 noundef %5) #1 {
  %7 = alloca i32, align 4
  %8 = alloca ptr, align 8
  %9 = alloca ptr, align 8
  %10 = alloca ptr, align 8
  %11 = alloca ptr, align 8
  %12 = alloca i32, align 4
  %13 = alloca i32, align 4
  %14 = alloca i32, align 4
  %15 = alloca i32, align 4
  store ptr %0, ptr %8, align 8, !tbaa !4
  store ptr %1, ptr %9, align 8, !tbaa !55
  store ptr %2, ptr %10, align 8, !tbaa !55
  store ptr %3, ptr %11, align 8, !tbaa !55
  store i32 %4, ptr %12, align 4, !tbaa !24
  store i32 %5, ptr %13, align 4, !tbaa !24
  call void @llvm.lifetime.start.p0(i64 4, ptr %14) #9
  store i32 -38, ptr %14, align 4, !tbaa !24
  %16 = load ptr, ptr %9, align 8, !tbaa !55
  %17 = call i32 @strcmp(ptr noundef %16, ptr noundef @.str.17) #10
  %18 = icmp ne i32 %17, 0
  br i1 %18, label %23, label %19

19:                                               ; preds = %6
  %20 = load ptr, ptr %8, align 8, !tbaa !4
  call void (ptr, i32, ptr, ...) @av_log(ptr noundef %20, i32 noundef 40, ptr noundef @.str.18)
  %21 = load ptr, ptr %8, align 8, !tbaa !4
  %22 = call i32 @flush_segment(ptr noundef %21)
  store i32 %22, ptr %7, align 4
  store i32 1, ptr %15, align 4
  br label %25

23:                                               ; preds = %6
  %24 = load i32, ptr %14, align 4, !tbaa !24
  store i32 %24, ptr %7, align 4
  store i32 1, ptr %15, align 4
  br label %25

25:                                               ; preds = %23, %19
  call void @llvm.lifetime.end.p0(i64 4, ptr %14) #9
  %26 = load i32, ptr %7, align 4
  ret i32 %26
}